target datalayout = "e-m:e-p270:32:32-p271:32:32-p272:64:64-i64:64-i128:128-f80:128-n8:16:32:64-S128"
target triple = "x86_64-unknown-linux-gnu"

%"struct.ClipperLib::IntPoint" = type { i64, i64 }
%"struct.ClipperLib::OutPt" = type { i32, %"struct.ClipperLib::IntPoint", ptr, ptr }

; Function Attrs: mustprogress nounwind uwtable
define hidden noundef zeroext i1 @_ZN10ClipperLib18Poly2ContainsPoly1EPNS_5OutPtES1_(ptr noundef %OutPt1, ptr noundef %OutPt2) #1 {
entry:
  %retval = alloca i1, align 1
  %OutPt1.addr = alloca ptr, align 8
  %OutPt2.addr = alloca ptr, align 8
  %op = alloca ptr, align 8
  %res = alloca i32, align 4
  store ptr %OutPt1, ptr %OutPt1.addr, align 8
  store ptr %OutPt2, ptr %OutPt2.addr, align 8
  %0 = load ptr, ptr %OutPt1.addr, align 8
  store ptr %0, ptr %op, align 8
  br label %do.body

do.body:                                          ; preds = %do.cond, %entry
  %1 = load ptr, ptr %op, align 8
  %Pt = getelementptr inbounds %"struct.ClipperLib::OutPt", ptr %1, i32 0, i32 1
  %2 = load ptr, ptr %OutPt2.addr, align 8
  %call = call noundef i32 @_ZN10ClipperLib14PointInPolygonERKNS_8IntPointEPNS_5OutPtE(ptr noundef nonnull align 8 dereferenceable(16) %Pt, ptr noundef %2)
  store i32 %call, ptr %res, align 4
  %3 = load i32, ptr %res, align 4
  %cmp = icmp sge i32 %3, 0
  br i1 %cmp, label %if.then, label %if.end

if.then:                                          ; preds = %do.body
  %4 = load i32, ptr %res, align 4
  %cmp1 = icmp sgt i32 %4, 0
  store i1 %cmp1, ptr %retval, align 1
  br label %return

if.end:                                           ; preds = %do.body
  %5 = load ptr, ptr %op, align 8
  %Next = getelementptr inbounds %"struct.ClipperLib::OutPt", ptr %5, i32 0, i32 2
  %6 = load ptr, ptr %Next, align 8
  store ptr %6, ptr %op, align 8
  br label %do.cond

do.cond:                                          ; preds = %if.end
  %7 = load ptr, ptr %op, align 8
  %8 = load ptr, ptr %OutPt1.addr, align 8
  %cmp2 = icmp ne ptr %7, %8
  br i1 %cmp2, label %do.body, label %do.end, !llvm.loop !12

do.end:                                           ; preds = %do.cond
  store i1 true, ptr %retval, align 1
  br label %return

return:                                           ; preds = %do.end, %if.then
  %9 = load i1, ptr %retval, align 1
  ret i1 %9
}