; Function Attrs: mustprogress nofree norecurse nosync nounwind willreturn memory(read, inaccessiblemem: none) uwtable
define hidden noundef zeroext i1 @_ZN10ClipperLib18Poly2ContainsPoly1EPNS_5OutPtES1_(ptr noundef readonly %OutPt1, ptr noundef readonly %OutPt2) local_unnamed_addr #1 {
entry:
  br label %do.body

do.body:                                          ; preds = %if.end, %entry
  %op.0 = phi ptr [ %OutPt1, %entry ], [ %0, %if.end ]
  %Pt = getelementptr inbounds i8, ptr %op.0, i64 8
  %call = tail call noundef i32 @_ZN10ClipperLib14PointInPolygonERKNS_8IntPointEPNS_5OutPtE(ptr noundef nonnull align 8 dereferenceable(16) %Pt, ptr noundef %OutPt2), !range !12
  %cmp = icmp sgt i32 %call, -1
  br i1 %cmp, label %if.then, label %if.end

if.then:                                          ; preds = %do.body
  %cmp1 = icmp ne i32 %call, 0
  br label %return

if.end:                                           ; preds = %do.body
  %Next = getelementptr inbounds i8, ptr %op.0, i64 24
  %0 = load ptr, ptr %Next, align 8
  %cmp2.not = icmp eq ptr %0, %OutPt1
  br i1 %cmp2.not, label %return, label %do.body, !llvm.loop !13

return:                                           ; preds = %if.end, %if.then
  %retval.0 = phi i1 [ %cmp1, %if.then ], [ true, %if.end ]
  ret i1 %retval.0
}